; Function Attrs: nounwind uwtable
define internal void @opcb(i32 noundef %0, ptr noundef initializes((500, 504)) %1) #0 {
  %3 = getelementptr inbounds nuw i8, ptr %1, i64 500
  store i32 %0, ptr %3, align 4, !tbaa !70
  %4 = getelementptr inbounds nuw i8, ptr %1, i64 488
  store volatile i8 0, ptr %4, align 8, !tbaa !56
  fence release
  %5 = getelementptr inbounds nuw i8, ptr %1, i64 440
  %6 = tail call i32 @pthread_cond_broadcast(ptr noundef nonnull %5) #12
  %7 = getelementptr inbounds nuw i8, ptr %1, i64 400
  %8 = tail call i32 @pthread_mutex_unlock(ptr noundef nonnull %7) #12
  ret void
}